; Function Attrs: nounwind uwtable
define void @deallocateMasterBarrierDisjunctVecPtrVecInt(ptr noundef %0) local_unnamed_addr #2 {
  %.not = icmp eq ptr %0, null
  br i1 %.not, label %33, label %.preheader

.preheader:                                       ; preds = %1
  %2 = getelementptr i8, ptr %0, i64 4
  %.val2737 = load i32, ptr %2, align 4, !tbaa !26
  %3 = icmp sgt i32 %.val2737, 0
  br i1 %3, label %.lr.ph39, label %.critedge

.lr.ph39:                                         ; preds = %.preheader
  %4 = getelementptr i8, ptr %0, i64 8
  br label %5

5:                                                ; preds = %.lr.ph39, %Vec_PtrFree.exit
  %indvars.iv44 = phi i64 [ 0, %.lr.ph39 ], [ %indvars.iv.next45, %Vec_PtrFree.exit ]
  %.val25 = load ptr, ptr %4, align 8, !tbaa !21
  %6 = getelementptr inbounds nuw ptr, ptr %.val25, i64 %indvars.iv44
  %7 = load ptr, ptr %6, align 8, !tbaa !23
  %8 = getelementptr i8, ptr %7, i64 4
  %.val2634 = load i32, ptr %8, align 4, !tbaa !26
  %9 = icmp sgt i32 %.val2634, 0
  br i1 %9, label %.lr.ph36, label %.critedge2

.lr.ph36:                                         ; preds = %5
  %10 = getelementptr i8, ptr %7, i64 8
  br label %11

11:                                               ; preds = %.lr.ph36, %.critedge4
  %.val2647 = phi i32 [ %.val2634, %.lr.ph36 ], [ %.val26, %.critedge4 ]
  %indvars.iv41 = phi i64 [ 0, %.lr.ph36 ], [ %indvars.iv.next42, %.critedge4 ]
  %.val = load ptr, ptr %10, align 8, !tbaa !21
  %12 = getelementptr inbounds nuw ptr, ptr %.val, i64 %indvars.iv41
  %13 = load ptr, ptr %12, align 8, !tbaa !23
  %14 = getelementptr i8, ptr %13, i64 4
  %.val2832 = load i32, ptr %14, align 4, !tbaa !67
  %15 = icmp sgt i32 %.val2832, 0
  br i1 %15, label %.lr.ph, label %.critedge4

.lr.ph:                                           ; preds = %11
  %16 = getelementptr i8, ptr %13, i64 8
  br label %17

17:                                               ; preds = %.lr.ph, %17
  %indvars.iv = phi i64 [ 0, %.lr.ph ], [ %indvars.iv.next, %17 ]
  %.val29 = load ptr, ptr %16, align 8, !tbaa !65
  %18 = getelementptr inbounds nuw i32, ptr %.val29, i64 %indvars.iv
  %19 = load i32, ptr %18, align 4, !tbaa !29
  %20 = tail call i32 (ptr, ...) @printf(ptr noundef nonnull dereferenceable(1) @.str.7, i32 noundef %19)
  %indvars.iv.next = add nuw nsw i64 %indvars.iv, 1
  %.val28 = load i32, ptr %14, align 4, !tbaa !67
  %21 = sext i32 %.val28 to i64
  %22 = icmp slt i64 %indvars.iv.next, %21
  br i1 %22, label %17, label %.critedge4.loopexit, !llvm.loop !68

.critedge4.loopexit:                              ; preds = %17
  %.val26.pre = load i32, ptr %8, align 4, !tbaa !26
  br label %.critedge4

.critedge4:                                       ; preds = %.critedge4.loopexit, %11
  %.val26 = phi i32 [ %.val26.pre, %.critedge4.loopexit ], [ %.val2647, %11 ]
  %indvars.iv.next42 = add nuw nsw i64 %indvars.iv41, 1
  %23 = sext i32 %.val26 to i64
  %24 = icmp slt i64 %indvars.iv.next42, %23
  br i1 %24, label %11, label %.critedge2, !llvm.loop !69

.critedge2:                                       ; preds = %.critedge4, %5
  %25 = getelementptr inbounds nuw i8, ptr %7, i64 8
  %26 = load ptr, ptr %25, align 8, !tbaa !21
  %.not.i = icmp eq ptr %26, null
  br i1 %.not.i, label %Vec_PtrFree.exit, label %27

27:                                               ; preds = %.critedge2
  tail call void @free(ptr noundef nonnull %26) #17
  br label %Vec_PtrFree.exit

Vec_PtrFree.exit:                                 ; preds = %.critedge2, %27
  tail call void @free(ptr noundef nonnull %7) #17
  %indvars.iv.next45 = add nuw nsw i64 %indvars.iv44, 1
  %.val27 = load i32, ptr %2, align 4, !tbaa !26
  %28 = sext i32 %.val27 to i64
  %29 = icmp slt i64 %indvars.iv.next45, %28
  br i1 %29, label %5, label %.critedge, !llvm.loop !70

.critedge:                                        ; preds = %Vec_PtrFree.exit, %.preheader
  %30 = getelementptr inbounds nuw i8, ptr %0, i64 8
  %31 = load ptr, ptr %30, align 8, !tbaa !21
  %.not.i30 = icmp eq ptr %31, null
  br i1 %.not.i30, label %Vec_PtrFree.exit31, label %32

32:                                               ; preds = %.critedge
  tail call void @free(ptr noundef nonnull %31) #17
  br label %Vec_PtrFree.exit31

Vec_PtrFree.exit31:                               ; preds = %.critedge, %32
  tail call void @free(ptr noundef nonnull %0) #17
  br label %33

33:                                               ; preds = %Vec_PtrFree.exit31, %1
  ret void
}